; Function Attrs: nounwind uwtable
define range(i32 0, 2) i32 @mz_zip_writer_init_from_reader_v2(ptr noundef captures(address) %0, ptr noundef %1, i32 noundef %2) local_unnamed_addr #8 {
  %.not = icmp eq ptr %0, null
  br i1 %.not, label %mz_zip_set_error.exit77, label %4

4:                                                ; preds = %3
  %5 = getelementptr inbounds nuw i8, ptr %0, i64 104
  %6 = load ptr, ptr %5, align 8
  %.not49 = icmp eq ptr %6, null
  br i1 %.not49, label %10, label %7

7:                                                ; preds = %4
  %8 = getelementptr inbounds nuw i8, ptr %0, i64 20
  %9 = load i32, ptr %8, align 4
  %.not50 = icmp eq i32 %9, 1
  br i1 %.not50, label %12, label %10

10:                                               ; preds = %7, %4
  %11 = getelementptr inbounds nuw i8, ptr %0, i64 28
  store i32 24, ptr %11, align 4
  br label %mz_zip_set_error.exit77

12:                                               ; preds = %7
  %13 = and i32 %2, 16384
  %.not51 = icmp eq i32 %13, 0
  %.phi.trans.insert = getelementptr inbounds nuw i8, ptr %6, i64 100
  %.pre = load i32, ptr %.phi.trans.insert, align 4
  %14 = icmp eq i32 %.pre, 0
  br i1 %.not51, label %17, label %15

15:                                               ; preds = %12
  br i1 %14, label %mz_zip_set_error.exit75, label %.thread

mz_zip_set_error.exit75:                          ; preds = %15
  %16 = getelementptr inbounds nuw i8, ptr %0, i64 28
  store i32 24, ptr %16, align 4
  br label %mz_zip_set_error.exit77

17:                                               ; preds = %12
  br i1 %14, label %22, label %.thread

.thread:                                          ; preds = %15, %17
  %18 = getelementptr inbounds nuw i8, ptr %0, i64 16
  %19 = load i32, ptr %18, align 8
  %20 = icmp eq i32 %19, -1
  br i1 %20, label %mz_zip_set_error.exit73, label %32

mz_zip_set_error.exit73:                          ; preds = %.thread
  %21 = getelementptr inbounds nuw i8, ptr %0, i64 28
  store i32 2, ptr %21, align 4
  br label %mz_zip_set_error.exit77

22:                                               ; preds = %17
  %23 = getelementptr inbounds nuw i8, ptr %0, i64 16
  %24 = load i32, ptr %23, align 8
  %25 = icmp eq i32 %24, 65535
  br i1 %25, label %mz_zip_set_error.exit71, label %27

mz_zip_set_error.exit71:                          ; preds = %22
  %26 = getelementptr inbounds nuw i8, ptr %0, i64 28
  store i32 2, ptr %26, align 4
  br label %mz_zip_set_error.exit77

27:                                               ; preds = %22
  %28 = load i64, ptr %0, align 8
  %29 = add i64 %28, -4294967220
  %30 = icmp ult i64 %29, -4294967296
  br i1 %30, label %mz_zip_set_error.exit69, label %32

mz_zip_set_error.exit69:                          ; preds = %27
  %31 = getelementptr inbounds nuw i8, ptr %0, i64 28
  store i32 3, ptr %31, align 4
  br label %mz_zip_set_error.exit77

32:                                               ; preds = %27, %.thread
  %33 = getelementptr inbounds nuw i8, ptr %6, i64 112
  %34 = load ptr, ptr %33, align 8
  %.not54 = icmp eq ptr %34, null
  br i1 %.not54, label %50, label %35

35:                                               ; preds = %32
  %36 = getelementptr inbounds nuw i8, ptr %0, i64 96
  %37 = load ptr, ptr %36, align 8
  %.not58 = icmp eq ptr %37, %0
  br i1 %.not58, label %39, label %mz_zip_set_error.exit67

mz_zip_set_error.exit67:                          ; preds = %35
  %38 = getelementptr inbounds nuw i8, ptr %0, i64 28
  store i32 24, ptr %38, align 4
  br label %mz_zip_set_error.exit77

39:                                               ; preds = %35
  %40 = getelementptr inbounds nuw i8, ptr %0, i64 24
  %41 = load i32, ptr %40, align 8
  %42 = icmp eq i32 %41, 4
  br i1 %42, label %43, label %.sink.split

43:                                               ; preds = %39
  %.not59 = icmp eq ptr %1, null
  br i1 %.not59, label %mz_zip_set_error.exit65, label %45

mz_zip_set_error.exit65:                          ; preds = %43
  %44 = getelementptr inbounds nuw i8, ptr %0, i64 28
  store i32 24, ptr %44, align 4
  br label %mz_zip_set_error.exit77

45:                                               ; preds = %43
  %46 = tail call ptr @freopen(ptr noundef nonnull %1, ptr noundef nonnull @.str.16, ptr noundef nonnull %34) #34
  store ptr %46, ptr %33, align 8
  %47 = icmp eq ptr %46, null
  br i1 %47, label %mz_zip_set_error.exit63, label %.sink.split

mz_zip_set_error.exit63:                          ; preds = %45
  %48 = tail call fastcc i32 @mz_zip_reader_end_internal(ptr noundef nonnull %0, i32 noundef 0)
  %49 = getelementptr inbounds nuw i8, ptr %0, i64 28
  store i32 17, ptr %49, align 4
  br label %mz_zip_set_error.exit77

50:                                               ; preds = %32
  %51 = getelementptr inbounds nuw i8, ptr %6, i64 128
  %52 = load ptr, ptr %51, align 8
  %.not55 = icmp eq ptr %52, null
  br i1 %.not55, label %61, label %53

53:                                               ; preds = %50
  %54 = getelementptr inbounds nuw i8, ptr %0, i64 96
  %55 = load ptr, ptr %54, align 8
  %.not57 = icmp eq ptr %55, %0
  br i1 %.not57, label %57, label %mz_zip_set_error.exit61

mz_zip_set_error.exit61:                          ; preds = %53
  %56 = getelementptr inbounds nuw i8, ptr %0, i64 28
  store i32 24, ptr %56, align 4
  br label %mz_zip_set_error.exit77

57:                                               ; preds = %53
  %58 = getelementptr inbounds nuw i8, ptr %6, i64 136
  %59 = load i64, ptr %58, align 8
  %60 = getelementptr inbounds nuw i8, ptr %6, i64 144
  store i64 %59, ptr %60, align 8
  br label %.sink.split

61:                                               ; preds = %50
  %62 = getelementptr inbounds nuw i8, ptr %0, i64 80
  %63 = load ptr, ptr %62, align 8
  %.not56 = icmp eq ptr %63, null
  br i1 %.not56, label %mz_zip_set_error.exit, label %67

mz_zip_set_error.exit:                            ; preds = %61
  %64 = getelementptr inbounds nuw i8, ptr %0, i64 28
  store i32 24, ptr %64, align 4
  br label %mz_zip_set_error.exit77

.sink.split:                                      ; preds = %39, %45, %57
  %mz_zip_heap_write_func.sink = phi ptr [ @mz_zip_heap_write_func, %57 ], [ @mz_zip_file_write_func, %45 ], [ @mz_zip_file_write_func, %39 ]
  %65 = getelementptr inbounds nuw i8, ptr %0, i64 80
  store ptr %mz_zip_heap_write_func.sink, ptr %65, align 8
  %66 = getelementptr inbounds nuw i8, ptr %0, i64 88
  store ptr null, ptr %66, align 8
  br label %67

67:                                               ; preds = %.sink.split, %61
  %68 = getelementptr inbounds nuw i8, ptr %0, i64 8
  %69 = load i64, ptr %68, align 8
  store i64 %69, ptr %0, align 8
  store i64 0, ptr %68, align 8
  %70 = load ptr, ptr %5, align 8
  %71 = getelementptr inbounds nuw i8, ptr %70, i64 64
  %72 = getelementptr inbounds nuw i8, ptr %0, i64 48
  %73 = load ptr, ptr %72, align 8
  %74 = getelementptr inbounds nuw i8, ptr %0, i64 64
  %75 = load ptr, ptr %74, align 8
  %76 = load ptr, ptr %71, align 8
  tail call void %73(ptr noundef %75, ptr noundef %76) #34
  tail call void @llvm.memset.p0.i64(ptr noundef nonnull align 8 dereferenceable(32) %71, i8 0, i64 32, i1 false)
  store i32 2, ptr %8, align 4
  br label %mz_zip_set_error.exit77

mz_zip_set_error.exit77:                          ; preds = %10, %3, %67, %mz_zip_set_error.exit, %mz_zip_set_error.exit61, %mz_zip_set_error.exit63, %mz_zip_set_error.exit65, %mz_zip_set_error.exit67, %mz_zip_set_error.exit69, %mz_zip_set_error.exit71, %mz_zip_set_error.exit73, %mz_zip_set_error.exit75
  %.0 = phi i32 [ 0, %mz_zip_set_error.exit73 ], [ 0, %mz_zip_set_error.exit67 ], [ 0, %mz_zip_set_error.exit63 ], [ 1, %67 ], [ 0, %mz_zip_set_error.exit65 ], [ 0, %mz_zip_set_error.exit61 ], [ 0, %mz_zip_set_error.exit ], [ 0, %mz_zip_set_error.exit71 ], [ 0, %mz_zip_set_error.exit69 ], [ 0, %mz_zip_set_error.exit75 ], [ 0, %3 ], [ 0, %10 ]
  ret i32 %.0
}